; Function Attrs: mustprogress uwtable
define internal fastcc noundef zeroext i1 @_ZN7openvdb5v11_02io12_GLOBAL__N_111writeAsTypeIbEEbRSoRKSt3any(ptr noundef nonnull align 8 dereferenceable(8) %os, ptr noundef nonnull align 8 dereferenceable(16) %val) unnamed_addr #6 personality ptr @__gxx_personality_v0 {
entry:
  %__arg.i.i.i.i = alloca %"union.std::any::_Arg", align 8
  %__arg.i = alloca %"union.std::any::_Arg", align 8
  call void @llvm.lifetime.start.p0(i64 8, ptr nonnull %__arg.i)
  %0 = load ptr, ptr %val, align 8
  %cmp.i.not.i = icmp eq ptr %0, null
  br i1 %cmp.i.not.i, label %_ZNKSt3any4typeEv.exit, label %if.end.i

if.end.i:                                         ; preds = %entry
  invoke void %0(i32 noundef 1, ptr noundef nonnull %val, ptr noundef nonnull %__arg.i)
          to label %invoke.cont.i unwind label %terminate.lpad.i

invoke.cont.i:                                    ; preds = %if.end.i
  %1 = load ptr, ptr %__arg.i, align 8
  br label %_ZNKSt3any4typeEv.exit

terminate.lpad.i:                                 ; preds = %if.end.i
  %2 = landingpad { ptr, i32 }
          catch ptr null
  %3 = extractvalue { ptr, i32 } %2, 0
  call void @__clang_call_terminate(ptr %3) #37
  unreachable

_ZNKSt3any4typeEv.exit:                           ; preds = %entry, %invoke.cont.i
  %retval.0.i = phi ptr [ %1, %invoke.cont.i ], [ @_ZTIv, %entry ]
  call void @llvm.lifetime.end.p0(i64 8, ptr nonnull %__arg.i)
  %__name.i = getelementptr inbounds i8, ptr %retval.0.i, i64 8
  %4 = load ptr, ptr %__name.i, align 8
  %5 = load ptr, ptr getelementptr inbounds (ptr, ptr @_ZTIb, i64 1), align 8
  %cmp.i = icmp eq ptr %4, %5
  br i1 %cmp.i, label %if.then, label %if.end.i2

if.end.i2:                                        ; preds = %_ZNKSt3any4typeEv.exit
  %6 = load i8, ptr %4, align 1
  %cmp4.not.i = icmp eq i8 %6, 42
  br i1 %cmp4.not.i, label %return, label %_ZNKSt9type_infoeqERKS_.exit

_ZNKSt9type_infoeqERKS_.exit:                     ; preds = %if.end.i2
  %7 = load i8, ptr %5, align 1
  %cmp.i.i = icmp eq i8 %7, 42
  %cond.idx.i.i = zext i1 %cmp.i.i to i64
  %cond.i.i = getelementptr inbounds i8, ptr %5, i64 %cond.idx.i.i
  %call6.i = call i32 @strcmp(ptr noundef nonnull dereferenceable(1) %4, ptr noundef nonnull dereferenceable(1) %cond.i.i) #25
  %cmp7.i = icmp eq i32 %call6.i, 0
  br i1 %cmp7.i, label %if.then, label %return

if.then:                                          ; preds = %_ZNKSt3any4typeEv.exit, %_ZNKSt9type_infoeqERKS_.exit
  %8 = load ptr, ptr %val, align 8
  %cmp.i.i.i = icmp eq ptr %8, @_ZNSt3any17_Manager_internalIbE9_S_manageENS_3_OpEPKS_PNS_4_ArgE
  br i1 %cmp.i.i.i, label %_ZSt8any_castIbET_RKSt3any.exit, label %lor.lhs.false.i.i.i

lor.lhs.false.i.i.i:                              ; preds = %if.then
  call void @llvm.lifetime.start.p0(i64 8, ptr nonnull %__arg.i.i.i.i)
  %cmp.i.not.i.i.i.i = icmp eq ptr %8, null
  br i1 %cmp.i.not.i.i.i.i, label %_ZNKSt3any4typeEv.exit.i.i.i, label %if.end.i.i.i.i

if.end.i.i.i.i:                                   ; preds = %lor.lhs.false.i.i.i
  invoke void %8(i32 noundef 1, ptr noundef nonnull %val, ptr noundef nonnull %__arg.i.i.i.i)
          to label %invoke.cont.i.i.i.i unwind label %terminate.lpad.i.i.i.i

invoke.cont.i.i.i.i:                              ; preds = %if.end.i.i.i.i
  %9 = load ptr, ptr %__arg.i.i.i.i, align 8
  br label %_ZNKSt3any4typeEv.exit.i.i.i

terminate.lpad.i.i.i.i:                           ; preds = %if.end.i.i.i.i
  %10 = landingpad { ptr, i32 }
          catch ptr null
  %11 = extractvalue { ptr, i32 } %10, 0
  call void @__clang_call_terminate(ptr %11) #37
  unreachable

_ZNKSt3any4typeEv.exit.i.i.i:                     ; preds = %invoke.cont.i.i.i.i, %lor.lhs.false.i.i.i
  %retval.0.i.i.i.i = phi ptr [ %9, %invoke.cont.i.i.i.i ], [ @_ZTIv, %lor.lhs.false.i.i.i ]
  call void @llvm.lifetime.end.p0(i64 8, ptr nonnull %__arg.i.i.i.i)
  %__name.i.i.i.i = getelementptr inbounds i8, ptr %retval.0.i.i.i.i, i64 8
  %12 = load ptr, ptr %__name.i.i.i.i, align 8
  %cmp.i.i.i.i = icmp eq ptr %12, %5
  br i1 %cmp.i.i.i.i, label %_ZSt8any_castIbET_RKSt3any.exit, label %if.end.i3.i.i.i

if.end.i3.i.i.i:                                  ; preds = %_ZNKSt3any4typeEv.exit.i.i.i
  %13 = load i8, ptr %12, align 1
  %cmp4.not.i.i.i.i = icmp eq i8 %13, 42
  br i1 %cmp4.not.i.i.i.i, label %if.end.i4, label %_ZNKSt9type_infoeqERKS_.exit.i.i.i

_ZNKSt9type_infoeqERKS_.exit.i.i.i:               ; preds = %if.end.i3.i.i.i
  %14 = load i8, ptr %5, align 1
  %cmp.i.i.i.i.i = icmp eq i8 %14, 42
  %cond.idx.i.i.i.i.i = zext i1 %cmp.i.i.i.i.i to i64
  %cond.i.i.i.i.i = getelementptr inbounds i8, ptr %5, i64 %cond.idx.i.i.i.i.i
  %call6.i.i.i.i = call i32 @strcmp(ptr noundef nonnull dereferenceable(1) %12, ptr noundef nonnull dereferenceable(1) %cond.i.i.i.i.i) #25
  %cmp7.i.i.i.i = icmp eq i32 %call6.i.i.i.i, 0
  br i1 %cmp7.i.i.i.i, label %_ZSt8any_castIbET_RKSt3any.exit, label %if.end.i4

if.end.i4:                                        ; preds = %_ZNKSt9type_infoeqERKS_.exit.i.i.i, %if.end.i3.i.i.i
  call void @_ZSt20__throw_bad_any_castv() #38
  unreachable

_ZSt8any_castIbET_RKSt3any.exit:                  ; preds = %if.then, %_ZNKSt3any4typeEv.exit.i.i.i, %_ZNKSt9type_infoeqERKS_.exit.i.i.i
  %_M_storage.i.i.i = getelementptr inbounds i8, ptr %val, i64 8
  %15 = load i8, ptr %_M_storage.i.i.i, align 8
  %16 = and i8 %15, 1
  %tobool1.i = icmp ne i8 %16, 0
  %call3 = call noundef nonnull align 8 dereferenceable(8) ptr @_ZNSolsEb(ptr noundef nonnull align 8 dereferenceable(8) %os, i1 noundef zeroext %tobool1.i)
  br label %return

return:                                           ; preds = %if.end.i2, %_ZNKSt9type_infoeqERKS_.exit, %_ZSt8any_castIbET_RKSt3any.exit
  %retval.0.i36 = phi i1 [ false, %_ZNKSt9type_infoeqERKS_.exit ], [ true, %_ZSt8any_castIbET_RKSt3any.exit ], [ false, %if.end.i2 ]
  ret i1 %retval.0.i36
}